; ModuleID = 'bench/hdf5/original/H5TSonce.ll'
source_filename = "bench/hdf5/original/H5TSonce.ll"
target datalayout = "e-m:e-p270:32:32-p271:32:32-p272:64:64-i64:64-i128:128-f80:128-n8:16:32:64-S128"
target triple = "x86_64-pc-linux-gnu"

; Function Attrs: nounwind uwtable
define range(i32 -1, 1) i32 @H5TS_once(ptr noundef %0, ptr noundef %1) local_unnamed_addr #0 {
  %3 = icmp eq ptr %0, null
  %4 = icmp eq ptr %1, null
  %5 = or i1 %3, %4
  br i1 %5, label %9, label %6, !prof !3

6:                                                ; preds = %2
  %7 = tail call i32 @pthread_once(ptr noundef nonnull %0, ptr noundef nonnull %1) #2
  %.not = icmp eq i32 %7, 0
  br i1 %.not, label %9, label %8, !prof !4

8:                                                ; preds = %6
  br label %9

9:                                                ; preds = %2, %6, %8
  %.0 = phi i32 [ -1, %8 ], [ 0, %6 ], [ -1, %2 ]
  ret i32 %.0
}

declare i32 @pthread_once(ptr noundef, ptr noundef) local_unnamed_addr #1


!llvm.module.flags = !{!0, !1, !2}

!0 = !{i32 1, !"wchar_size", i32 4}
!1 = !{i32 8, !"PIC Level", i32 2}
!2 = !{i32 7, !"uwtable", i32 2}
!3 = !{!"branch_weights", !"expected", i32 1, i32 2000}
!4 = !{!"branch_weights", !"expected", i32 2000, i32 1}
